Certificate:
    Data:
        Version: 3 (0x2)
        Serial Number: 2 (0x2)
        Signature Algorithm: sha256WithRSAEncryption
        Issuer: C=US, ST=New Mexico, L=Santa Fe
        Validity
            Not Before: May 25 16:13:24 2017 GMT
            Not After : Oct 10 16:13:24 2044 GMT
        Subject: C=US, ST=New Mexico, L=Santa Fe, O=Client Endpoint, CN=testclient-rbf-requests.santafe
        Subject Public Key Info:
            Public Key Algorithm: rsaEncryption
            RSA Public Key: (2048 bit)
                Modulus (2048 bit):
                    00:cb:29:c4:c5:79:18:11:ef:73:6b:86:76:00:16:
                    aa:f0:e6:2e:b8:55:06:54:f8:4b:9c:cd:be:b9:a8:
                    22:71:b8:04:91:23:73:6a:d6:eb:db:fc:1d:be:34:
                    84:42:36:09:c2:ce:af:29:9d:04:b6:f7:33:9c:6d:
                    6d:e7:a4:6b:20:27:10:66:e3:b3:c4:c7:88:3c:14:
                    34:c7:01:f3:c9:45:a2:14:29:f2:04:e1:26:a0:ef:
                    93:01:d5:3a:92:52:6e:62:48:85:6c:bd:23:82:9e:
                    a2:dd:36:6e:f0:08:a6:e6:e5:e2:d9:cc:c2:8f:1d:
                    92:c3:6c:d0:fa:8c:45:df:c5:56:d1:31:17:37:58:
                    83:aa:51:a9:4c:2b:7e:e1:aa:ca:14:63:3d:04:70:
                    f0:3f:d4:c1:7e:73:42:70:95:b6:92:bd:aa:a1:e5:
                    43:90:93:67:f9:8c:b8:38:18:a7:bc:0e:a0:c5:72:
                    7e:26:0c:18:76:97:d2:a0:6d:ce:a6:6a:76:c7:1f:
                    2d:da:d1:d1:c1:84:f9:79:d5:4a:ec:bc:ad:a4:e6:
                    14:ac:a0:ff:bb:90:9b:20:54:0a:aa:64:dc:7a:5c:
                    c8:cb:fc:7d:4c:78:9f:57:70:2e:7b:7e:ee:6c:7d:
                    e9:cb:55:94:38:6c:9f:90:0f:18:0b:b4:fa:24:d4:
                    08:2f
                Exponent: 65537 (0x10001)
        X509v3 extensions:
            X509v3 Subject Key Identifier: 
                04:CD:CB:91:D8:CA:99:B6:D1:F3:5E:51:0B:65:8D:38:C0:05:CC:C2
            X509v3 Authority Key Identifier: 
                DirName:/C=US/ST=New Mexico/L=Santa Fe
                serial:C2:71:D3:B1:3C:5D:D2:15

            X509v3 Basic Constraints: 
                CA:FALSE
            X509v3 Key Usage: 
                Digital Signature, Key Encipherment
            X509v3 Subject Alternative Name: 
                DNS:testclient-rbf-requests.santafe, IP Address:127.0.0.1
            Netscape Comment: 
                OpenSSL Generated Certificate
    Signature Algorithm: sha256WithRSAEncryption
        33:e2:27:26:31:9e:7e:1b:89:2f:a3:ff:a5:38:b4:bd:96:d8:
        da:fe:14:c0:ce:30:e9:ea:7b:2d:39:4d:f0:ab:b1:66:c0:2e:
        6d:83:9b:9f:37:36:d1:52:4c:36:dc:9b:9d:e5:3f:c6:37:e4:
        af:e1:31:b0:d9:45:f7:bf:c7:ef:be:96:33:1e:40:6c:bf:05:
        04:47:f5:da:dd:96:65:4a:c8:f9:a9:4e:17:ef:81:0c:b1:88:
        3c:34:71:67:d7:4c:67:a3:08:a9:b3:e8:c2:76:f9:8b:d0:47:
        50:84:78:fb:35:0f:cd:19:de:e3:f4:f2:3d:4a:5b:4d:a4:ac:
        c9:c0:38:f7:dd:21:f1:4a:0a:b3:54:af:66:31:a4:a0:13:7d:
        11:d1:cb:ce:fd:cf:80:77:72:8a:00:17:24:16:47:8a:a3:04:
        16:30:c8:c4:bf:9c:1f:fa:6f:9d:1f:76:d8:1d:67:2f:6f:04:
        f6:8f:ad:84:2f:4d:76:d8:01:09:92:61:62:eb:76:9f:fc:48:
        4a:88:7c:08:46:35:db:04:20:72:70:06:23:a2:d5:57:3b:d0:
        38:58:2b:9f:95:3b:c1:c6:58:c1:2a:8d:b1:ff:b6:27:72:e2:
        50:42:7a:72:5c:41:c2:7f:84:45:5f:8c:78:6b:ce:fa:ae:89:
        cd:c2:0f:e4:3f:b5:cc:0c:c5:6a:74:4a:5b:94:46:97:69:27:
        04:b6:3a:a6:f2:93:80:11:14:52:97:8a:ad:4b:c2:67:9f:29:
        3b:f8:60:86:c2:35:b8:56:93:32:83:9b:27:df:e0:27:57:81:
        22:87:0d:05:c7:f8:fe:c2:56:91:77:73:cd:86:15:38:cd:cb:
        02:fc:cb:92:22:25:c1:3b:12:1a:9c:b9:94:ea:02:53:40:f4:
        a5:e3:58:d4:22:32:4f:6f:f7:27:d6:fa:39:3e:f5:b1:69:96:
        c5:88:52:48:7f:96:7d:16:f1:3e:07:d0:51:d2:7e:eb:b1:87:
        89:10:0a:a6:14:b2:ab:51:f4:07:f2:a2:0f:06:55:65:ac:c4:
        b7:ae:e6:e3:c3:07:33:c6:f5:11:4d:c4:2f:da:f3:69:ea:53:
        64:d7:87:51:95:7b:e4:dc:db:e6:ba:56:c8:f9:cf:e1:86:82:
        db:3e:90:ac:a9:cd:d2:58:ea:d8:54:85:b1:e2:02:9f:4a:3a:
        6d:ea:d8:db:72:71:5c:4b:d5:83:4f:8e:75:8b:5a:aa:61:7e:
        3e:2f:82:e3:1e:65:e9:f6:a8:ba:0e:02:3a:74:71:ee:e1:db:
        88:38:7f:2b:0c:70:b2:3f:2c:cd:0a:af:28:66:75:13:02:c5:
        25:f3:29:fe:48:d9:45:e5
-----BEGIN CERTIFICATE-----
MIIFFTCCAv2gAwIBAgIBAjANBgkqhkiG9w0BAQsFADA1MQswCQYDVQQGEwJVUzET
MBEGA1UECAwKTmV3IE1leGljbzERMA8GA1UEBwwIU2FudGEgRmUwHhcNMTcwNTI1
MTYxMzI0WhcNNDQxMDEwMTYxMzI0WjB5MQswCQYDVQQGEwJVUzETMBEGA1UECAwK
TmV3IE1leGljbzERMA8GA1UEBwwIU2FudGEgRmUxGDAWBgNVBAoMD0NsaWVudCBF
bmRwb2ludDEoMCYGA1UEAwwfdGVzdGNsaWVudC1yYmYtcmVxdWVzdHMuc2FudGFm
ZTCCASIwDQYJKoZIhvcNAQEBBQADggEPADCCAQoCggEBAMspxMV5GBHvc2uGdgAW
qvDmLrhVBlT4S5zNvrmoInG4BJEjc2rW69v8Hb40hEI2CcLOrymdBLb3M5xtbeek
ayAnEGbjs8THiDwUNMcB88lFohQp8gThJqDvkwHVOpJSbmJIhWy9I4Keot02bvAI
publ4tnMwo8dksNs0PqMRd/FVtExFzdYg6pRqUwrfuGqyhRjPQRw8D/UwX5zQnCV
tpK9qqHlQ5CTZ/mMuDgYp7wOoMVyfiYMGHaX0qBtzqZqdscfLdrR0cGE+XnVSuy8
raTmFKyg/7uQmyBUCqpk3HpcyMv8fUx4n1dwLnt+7mx96ctVlDhsn5APGAu0+iTU
CC8CAwEAAaOB6zCB6DAdBgNVHQ4EFgQUBM3LkdjKmbbR815RC2WNOMAFzMIwTwYD
VR0jBEgwRqE5pDcwNTELMAkGA1UEBhMCVVMxEzARBgNVBAgMCk5ldyBNZXhpY28x
ETAPBgNVBAcMCFNhbnRhIEZlggkAwnHTsTxd0hUwCQYDVR0TBAIwADALBgNVHQ8E
BAMCBaAwMAYDVR0RBCkwJ4IfdGVzdGNsaWVudC1yYmYtcmVxdWVzdHMuc2FudGFm
ZYcEfwAAATAsBglghkgBhvhCAQ0EHxYdT3BlblNTTCBHZW5lcmF0ZWQgQ2VydGlm
aWNhdGUwDQYJKoZIhvcNAQELBQADggIBADPiJyYxnn4biS+j/6U4tL2W2Nr+FMDO
MOnqey05TfCrsWbALm2Dm583NtFSTDbcm53lP8Y35K/hMbDZRfe/x+++ljMeQGy/
BQRH9drdlmVKyPmpThfvgQyxiDw0cWfXTGejCKmz6MJ2+YvQR1CEePs1D80Z3uP0
8j1KW02krMnAOPfdIfFKCrNUr2YxpKATfRHRy879z4B3cooAFyQWR4qjBBYwyMS/
nB/6b50fdtgdZy9vBPaPrYQvTXbYAQmSYWLrdp/8SEqIfAhGNdsEIHJwBiOi1Vc7
0DhYK5+VO8HGWMEqjbH/tidy4lBCenJcQcJ/hEVfjHhrzvquic3CD+Q/tcwMxWp0
SluURpdpJwS2Oqbyk4ARFFKXiq1LwmefKTv4YIbCNbhWkzKDmyff4CdXgSKHDQXH
+P7CVpF3c82GFTjNywL8y5IiJcE7EhqcuZTqAlNA9KXjWNQiMk9v9yfW+jk+9bFp
lsWIUkh/ln0W8T4H0FHSfuuxh4kQCqYUsqtR9Afyog8GVWWsxLeu5uPDBzPG9RFN
xC/a82nqU2TXh1GVe+Tc2+a6Vsj5z+GGgts+kKypzdJY6thUhbHiAp9KOm3q2Nty
cVxL1YNPjnWLWqphfj4vguMeZen2qLoOAjp0ce7h24g4fysMcLI/LM0KryhmdRMC
xSXzKf5I2UXl
-----END CERTIFICATE-----
