Certificate:
    Data:
        Version: 3 (0x2)
        Serial Number: 3 (0x3)
        Signature Algorithm: sha256WithRSAEncryption
        Issuer: C=US, ST=New Mexico, L=Santa Fe
        Validity
            Not Before: May 25 16:47:30 2017 GMT
            Not After : Oct 10 16:47:30 2044 GMT
        Subject: C=US, ST=New Mexico, L=Santa Fe, O=Testing Endpoint, CN=testserver-rbf-requests.santafe
        Subject Public Key Info:
            Public Key Algorithm: rsaEncryption
            RSA Public Key: (2048 bit)
                Modulus (2048 bit):
                    00:a9:e1:e6:53:98:63:0e:32:84:26:2e:be:61:4c:
                    7d:82:82:9f:34:15:bd:a4:5e:d3:a7:ce:f7:cf:9e:
                    65:9c:53:9e:64:9f:e1:65:a2:33:6f:f6:f4:c5:0f:
                    fb:fb:02:b2:26:8f:8c:85:a4:eb:69:06:9a:ad:ef:
                    32:58:11:4d:a5:ec:cf:0e:ea:d0:9b:10:38:be:62:
                    44:9d:26:da:5d:7c:12:8c:e5:e8:fe:13:9c:9f:ea:
                    48:42:e8:07:11:bc:d2:27:6c:5f:c0:e9:59:bf:89:
                    40:b9:2e:ce:d5:48:6d:52:ec:9d:07:98:1d:b9:77:
                    d8:c1:d6:de:a1:b0:e7:b2:95:e2:44:21:71:94:f5:
                    73:bb:75:50:d9:de:1b:33:7b:56:23:70:e6:e3:89:
                    d4:fb:d6:c8:6e:4a:15:e0:3b:e7:e8:ab:5b:95:f9:
                    00:62:4a:7f:80:19:ea:54:a4:c8:23:8a:20:0f:c7:
                    db:3f:b8:2d:cd:0a:9c:6b:2b:ac:46:17:4d:83:eb:
                    ca:76:0b:58:05:57:46:da:38:d3:8e:5e:ed:4f:e5:
                    fc:cc:88:70:27:ba:90:5a:70:c7:65:a0:fb:96:0a:
                    e9:91:ed:49:94:ac:e3:de:a6:f8:cb:93:50:60:43:
                    77:a0:f8:f3:74:57:6b:ec:9c:26:20:9a:d4:88:6f:
                    91:a9
                Exponent: 65537 (0x10001)
        X509v3 extensions:
            X509v3 Subject Key Identifier: 
                32:DE:F8:12:A9:AA:2F:95:6D:C0:A2:3A:23:7B:FA:7F:B7:B5:C9:0A
            X509v3 Authority Key Identifier: 
                DirName:/C=US/ST=New Mexico/L=Santa Fe
                serial:C2:71:D3:B1:3C:5D:D2:15

            X509v3 Basic Constraints: 
                CA:FALSE
            X509v3 Key Usage: 
                Digital Signature, Key Encipherment
            X509v3 Subject Alternative Name: 
                DNS:testserver-rbf-requests.santafe, DNS:localhost, IP Address:127.0.0.1
            Netscape Comment: 
                OpenSSL Generated Certificate
    Signature Algorithm: sha256WithRSAEncryption
        80:f0:b3:49:e5:cb:f0:9b:6b:62:24:8c:3d:5b:8c:bf:3f:64:
        0e:0b:68:cf:58:9d:ba:a1:1c:3d:0e:a2:b0:9b:fd:c8:c1:f7:
        d6:4f:09:6a:a0:ed:de:ad:a6:56:cf:86:62:9d:a6:4b:3b:50:
        39:5d:74:63:1a:a0:e4:09:99:bb:91:18:43:4d:11:0e:f4:f3:
        04:09:cf:33:1f:64:7d:27:c7:b0:c3:d1:6d:27:72:03:3d:c0:
        b1:94:d2:c6:02:b1:21:18:ab:9a:e4:e9:53:8b:ea:f7:45:a1:
        1c:39:6d:71:7f:0c:e1:7d:07:40:7e:23:cf:14:a7:fe:80:5e:
        a8:d4:96:6e:2c:5e:d3:3a:a0:f7:86:26:e6:f1:e8:a6:8e:89:
        61:f3:96:cc:9a:a1:57:39:62:2e:b3:68:c2:a9:54:63:12:d0:
        ae:6d:ab:db:16:a0:a3:a3:f8:0f:c0:5d:a6:c5:61:92:88:da:
        52:71:e9:a7:89:69:0f:01:43:1e:ae:3e:09:04:7d:08:12:49:
        83:90:7f:39:e1:6a:68:67:8b:49:62:c5:7a:47:65:e3:f7:6e:
        79:1a:0e:5d:b4:a0:e1:dc:cb:58:18:4c:e7:3f:72:51:15:76:
        31:10:f1:1d:f5:62:96:78:74:ff:72:10:40:c2:1f:cc:81:64:
        27:73:50:51:5a:94:4f:1a:b9:10:1e:80:52:e2:6b:d0:a3:30:
        50:7f:06:e6:4e:29:e5:0b:8f:ba:d3:de:c8:03:f1:6b:9f:13:
        8e:5e:a0:44:b6:4a:9c:a6:a7:e0:7b:1c:6d:a1:11:6f:03:1e:
        3f:a2:ba:1a:94:dc:07:ec:7e:fa:9b:8b:01:0c:a3:e1:c2:f5:
        1a:09:9c:00:85:91:2d:41:34:60:8d:56:f7:6f:cb:bd:09:70:
        43:58:c9:53:cd:92:f7:62:66:8b:73:f6:ac:93:95:1e:7e:70:
        a9:b9:76:23:09:95:94:51:fb:02:5c:3e:a9:59:9f:ce:c4:ed:
        8f:a0:c6:9e:ff:62:84:04:60:8b:f8:59:2a:7c:92:ee:36:0a:
        54:ce:f3:13:b4:d5:66:a2:2d:38:95:13:5d:03:f4:85:16:c3:
        f8:0d:1b:f4:ce:17:ea:b5:87:31:cd:01:42:cf:19:b2:65:3b:
        b7:ec:54:dd:54:21:d9:8d:57:cd:63:4b:8e:f3:21:4e:7c:2c:
        9e:cc:27:59:c6:b7:3c:a4:6e:ce:ee:51:89:4c:7e:dc:6b:17:
        37:91:13:a6:b9:bb:0c:da:e0:04:60:23:aa:7b:4c:3e:5f:6f:
        94:cb:ad:af:03:0d:98:46:c1:a9:61:70:e6:6e:fb:ad:d3:df:
        27:ec:b5:fe:97:c6:88:ce
-----BEGIN CERTIFICATE-----
MIIFITCCAwmgAwIBAgIBAzANBgkqhkiG9w0BAQsFADA1MQswCQYDVQQGEwJVUzET
MBEGA1UECAwKTmV3IE1leGljbzERMA8GA1UEBwwIU2FudGEgRmUwHhcNMTcwNTI1
MTY0NzMwWhcNNDQxMDEwMTY0NzMwWjB6MQswCQYDVQQGEwJVUzETMBEGA1UECAwK
TmV3IE1leGljbzERMA8GA1UEBwwIU2FudGEgRmUxGTAXBgNVBAoMEFRlc3Rpbmcg
RW5kcG9pbnQxKDAmBgNVBAMMH3Rlc3RzZXJ2ZXItcmJmLXJlcXVlc3RzLnNhbnRh
ZmUwggEiMA0GCSqGSIb3DQEBAQUAA4IBDwAwggEKAoIBAQCp4eZTmGMOMoQmLr5h
TH2Cgp80Fb2kXtOnzvfPnmWcU55kn+FlojNv9vTFD/v7ArImj4yFpOtpBpqt7zJY
EU2l7M8O6tCbEDi+YkSdJtpdfBKM5ej+E5yf6khC6AcRvNInbF/A6Vm/iUC5Ls7V
SG1S7J0HmB25d9jB1t6hsOeyleJEIXGU9XO7dVDZ3hsze1YjcObjidT71shuShXg
O+foq1uV+QBiSn+AGepUpMgjiiAPx9s/uC3NCpxrK6xGF02D68p2C1gFV0baONOO
Xu1P5fzMiHAnupBacMdloPuWCumR7UmUrOPepvjLk1BgQ3eg+PN0V2vsnCYgmtSI
b5GpAgMBAAGjgfYwgfMwHQYDVR0OBBYEFDLe+BKpqi+VbcCiOiN7+n+3tckKME8G
A1UdIwRIMEahOaQ3MDUxCzAJBgNVBAYTAlVTMRMwEQYDVQQIDApOZXcgTWV4aWNv
MREwDwYDVQQHDAhTYW50YSBGZYIJAMJx07E8XdIVMAkGA1UdEwQCMAAwCwYDVR0P
BAQDAgWgMDsGA1UdEQQ0MDKCH3Rlc3RzZXJ2ZXItcmJmLXJlcXVlc3RzLnNhbnRh
ZmWCCWxvY2FsaG9zdIcEfwAAATAsBglghkgBhvhCAQ0EHxYdT3BlblNTTCBHZW5l
cmF0ZWQgQ2VydGlmaWNhdGUwDQYJKoZIhvcNAQELBQADggIBAIDws0nly/Cba2Ik
jD1bjL8/ZA4LaM9YnbqhHD0OorCb/cjB99ZPCWqg7d6tplbPhmKdpks7UDlddGMa
oOQJmbuRGENNEQ708wQJzzMfZH0nx7DD0W0ncgM9wLGU0sYCsSEYq5rk6VOL6vdF
oRw5bXF/DOF9B0B+I88Up/6AXqjUlm4sXtM6oPeGJubx6KaOiWHzlsyaoVc5Yi6z
aMKpVGMS0K5tq9sWoKOj+A/AXabFYZKI2lJx6aeJaQ8BQx6uPgkEfQgSSYOQfznh
amhni0lixXpHZeP3bnkaDl20oOHcy1gYTOc/clEVdjEQ8R31YpZ4dP9yEEDCH8yB
ZCdzUFFalE8auRAegFLia9CjMFB/BuZOKeULj7rT3sgD8WufE45eoES2Spymp+B7
HG2hEW8DHj+iuhqU3AfsfvqbiwEMo+HC9RoJnACFkS1BNGCNVvdvy70JcENYyVPN
kvdiZotz9qyTlR5+cKm5diMJlZRR+wJcPqlZn87E7Y+gxp7/YoQEYIv4WSp8ku42
ClTO8xO01WaiLTiVE10D9IUWw/gNG/TOF+q1hzHNAULPGbJlO7fsVN1UIdmNV81j
S47zIU58LJ7MJ1nGtzykbs7uUYlMftxrFzeRE6a5uwza4ARgI6p7TD5fb5TLra8D
DZhGwalhcOZu+63T3yfstf6XxojO
-----END CERTIFICATE-----
